; Function Attrs: mustprogress uwtable
define noundef nonnull align 8 dereferenceable(8) ptr @_ZN11OpenImageIO6v3_1_08ArgParse9separatorENS0_17basic_string_viewIcSt11char_traitsIcEEE(ptr noundef nonnull align 8 dereferenceable(16) %0, ptr noundef readonly captures(none) %1) local_unnamed_addr #5 align 2 {
  %3 = alloca %"class.OpenImageIO::v3_1_0::basic_string_view", align 8
  %4 = tail call noundef nonnull align 8 dereferenceable(8) ptr @_ZN11OpenImageIO6v3_1_08ArgParse12add_argumentEPKc(ptr noundef nonnull align 8 dereferenceable(16) %0, ptr noundef nonnull @.str.28)
  %5 = load ptr, ptr %1, align 8, !tbaa !15
  store ptr %5, ptr %3, align 8, !tbaa !15
  %6 = getelementptr inbounds nuw i8, ptr %3, i64 8
  %7 = getelementptr inbounds nuw i8, ptr %1, i64 8
  %8 = load i64, ptr %7, align 8, !tbaa !17
  store i64 %8, ptr %6, align 8, !tbaa !17
  %9 = call noundef nonnull align 8 dereferenceable(8) ptr @_ZN11OpenImageIO6v3_1_08ArgParse3Arg4helpENS0_17basic_string_viewIcSt11char_traitsIcEEE(ptr noundef nonnull align 8 dereferenceable(8) %4, ptr noundef nonnull %3)
  ret ptr %4
}